; Function Attrs: mustprogress uwtable
define dso_local void @_ZN10ImDrawList17AddTriangleFilledERK6ImVec2S2_S2_j(ptr noundef nonnull align 8 captures(none) dereferenceable(200) %0, ptr noundef nonnull readonly align 4 captures(none) dereferenceable(8) %1, ptr noundef nonnull readonly align 4 captures(none) dereferenceable(8) %2, ptr noundef nonnull readonly align 4 captures(none) dereferenceable(8) %3, i32 noundef %4) local_unnamed_addr #9 align 2 {
  %6 = icmp ult i32 %4, 16777216
  br i1 %6, label %94, label %7

7:                                                ; preds = %5
  %8 = getelementptr inbounds nuw i8, ptr %0, i64 80
  %9 = load i32, ptr %8, align 8, !tbaa !62
  %10 = getelementptr inbounds nuw i8, ptr %0, i64 84
  %11 = load i32, ptr %10, align 4, !tbaa !60
  %12 = icmp eq i32 %9, %11
  br i1 %12, label %13, label %._ZN8ImVectorI6ImVec2E7reserveEi.exit_crit_edge.i.i

._ZN8ImVectorI6ImVec2E7reserveEi.exit_crit_edge.i.i: ; preds = %7
  %.phi.trans.insert.i.i = getelementptr inbounds nuw i8, ptr %0, i64 88
  %.pre.i.i = load ptr, ptr %.phi.trans.insert.i.i, align 8, !tbaa !61
  br label %_ZN10ImDrawList10PathLineToERK6ImVec2.exit

13:                                               ; preds = %7
  %14 = add nsw i32 %9, 1
  %.not.i.i.i = icmp eq i32 %9, 0
  br i1 %.not.i.i.i, label %_ZNK8ImVectorI6ImVec2E14_grow_capacityEi.exit.i.i, label %15

15:                                               ; preds = %13
  %16 = sdiv i32 %9, 2
  %17 = add nsw i32 %16, %9
  br label %_ZNK8ImVectorI6ImVec2E14_grow_capacityEi.exit.i.i

_ZNK8ImVectorI6ImVec2E14_grow_capacityEi.exit.i.i: ; preds = %15, %13
  %18 = phi i32 [ %17, %15 ], [ 8, %13 ]
  %19 = tail call noundef i32 @llvm.smax.i32(i32 %18, i32 %14)
  %20 = sext i32 %19 to i64
  %21 = shl nsw i64 %20, 3
  %22 = tail call noundef ptr @_ZN5ImGui8MemAllocEm(i64 noundef %21)
  %23 = getelementptr inbounds nuw i8, ptr %0, i64 88
  %24 = load ptr, ptr %23, align 8, !tbaa !61
  %.not6.i.i.i = icmp eq ptr %24, null
  br i1 %.not6.i.i.i, label %30, label %25

25:                                               ; preds = %_ZNK8ImVectorI6ImVec2E14_grow_capacityEi.exit.i.i
  %26 = load i32, ptr %8, align 8, !tbaa !62
  %27 = sext i32 %26 to i64
  %28 = shl nsw i64 %27, 3
  tail call void @llvm.memcpy.p0.p0.i64(ptr align 4 %22, ptr nonnull align 4 %24, i64 %28, i1 false)
  %29 = load ptr, ptr %23, align 8, !tbaa !61
  tail call void @_ZN5ImGui7MemFreeEPv(ptr noundef %29)
  br label %30

30:                                               ; preds = %25, %_ZNK8ImVectorI6ImVec2E14_grow_capacityEi.exit.i.i
  store ptr %22, ptr %23, align 8, !tbaa !61
  store i32 %19, ptr %10, align 4, !tbaa !60
  %.pre3.i.i = load i32, ptr %8, align 8, !tbaa !62
  br label %_ZN10ImDrawList10PathLineToERK6ImVec2.exit

_ZN10ImDrawList10PathLineToERK6ImVec2.exit:       ; preds = %._ZN8ImVectorI6ImVec2E7reserveEi.exit_crit_edge.i.i, %30
  %31 = phi i32 [ %9, %._ZN8ImVectorI6ImVec2E7reserveEi.exit_crit_edge.i.i ], [ %.pre3.i.i, %30 ]
  %32 = phi ptr [ %.pre.i.i, %._ZN8ImVectorI6ImVec2E7reserveEi.exit_crit_edge.i.i ], [ %22, %30 ]
  %33 = sext i32 %31 to i64
  %34 = getelementptr inbounds %struct.ImVec2, ptr %32, i64 %33
  %35 = load i64, ptr %1, align 4
  store i64 %35, ptr %34, align 4
  %36 = load i32, ptr %8, align 8, !tbaa !62
  %37 = add nsw i32 %36, 1
  store i32 %37, ptr %8, align 8, !tbaa !62
  %38 = load i32, ptr %10, align 4, !tbaa !60
  %39 = icmp eq i32 %37, %38
  br i1 %39, label %40, label %._ZN8ImVectorI6ImVec2E7reserveEi.exit_crit_edge.i.i5

._ZN8ImVectorI6ImVec2E7reserveEi.exit_crit_edge.i.i5: ; preds = %_ZN10ImDrawList10PathLineToERK6ImVec2.exit
  %.phi.trans.insert.i.i6 = getelementptr inbounds nuw i8, ptr %0, i64 88
  %.pre.i.i7 = load ptr, ptr %.phi.trans.insert.i.i6, align 8, !tbaa !61
  br label %_ZN10ImDrawList10PathLineToERK6ImVec2.exit12

40:                                               ; preds = %_ZN10ImDrawList10PathLineToERK6ImVec2.exit
  %41 = add nsw i32 %36, 2
  %.not.i.i.i8 = icmp eq i32 %37, 0
  br i1 %.not.i.i.i8, label %_ZNK8ImVectorI6ImVec2E14_grow_capacityEi.exit.i.i9, label %42

42:                                               ; preds = %40
  %43 = sdiv i32 %37, 2
  %44 = add nsw i32 %43, %37
  br label %_ZNK8ImVectorI6ImVec2E14_grow_capacityEi.exit.i.i9

_ZNK8ImVectorI6ImVec2E14_grow_capacityEi.exit.i.i9: ; preds = %42, %40
  %45 = phi i32 [ %44, %42 ], [ 8, %40 ]
  %46 = tail call noundef i32 @llvm.smax.i32(i32 %45, i32 %41)
  %47 = sext i32 %46 to i64
  %48 = shl nsw i64 %47, 3
  %49 = tail call noundef ptr @_ZN5ImGui8MemAllocEm(i64 noundef %48)
  %50 = getelementptr inbounds nuw i8, ptr %0, i64 88
  %51 = load ptr, ptr %50, align 8, !tbaa !61
  %.not6.i.i.i10 = icmp eq ptr %51, null
  br i1 %.not6.i.i.i10, label %57, label %52

52:                                               ; preds = %_ZNK8ImVectorI6ImVec2E14_grow_capacityEi.exit.i.i9
  %53 = load i32, ptr %8, align 8, !tbaa !62
  %54 = sext i32 %53 to i64
  %55 = shl nsw i64 %54, 3
  tail call void @llvm.memcpy.p0.p0.i64(ptr align 4 %49, ptr nonnull align 4 %51, i64 %55, i1 false)
  %56 = load ptr, ptr %50, align 8, !tbaa !61
  tail call void @_ZN5ImGui7MemFreeEPv(ptr noundef %56)
  br label %57

57:                                               ; preds = %52, %_ZNK8ImVectorI6ImVec2E14_grow_capacityEi.exit.i.i9
  store ptr %49, ptr %50, align 8, !tbaa !61
  store i32 %46, ptr %10, align 4, !tbaa !60
  %.pre3.i.i11 = load i32, ptr %8, align 8, !tbaa !62
  br label %_ZN10ImDrawList10PathLineToERK6ImVec2.exit12

_ZN10ImDrawList10PathLineToERK6ImVec2.exit12:     ; preds = %._ZN8ImVectorI6ImVec2E7reserveEi.exit_crit_edge.i.i5, %57
  %58 = phi i32 [ %37, %._ZN8ImVectorI6ImVec2E7reserveEi.exit_crit_edge.i.i5 ], [ %.pre3.i.i11, %57 ]
  %59 = phi ptr [ %.pre.i.i7, %._ZN8ImVectorI6ImVec2E7reserveEi.exit_crit_edge.i.i5 ], [ %49, %57 ]
  %60 = sext i32 %58 to i64
  %61 = getelementptr inbounds %struct.ImVec2, ptr %59, i64 %60
  %62 = load i64, ptr %2, align 4
  store i64 %62, ptr %61, align 4
  %63 = load i32, ptr %8, align 8, !tbaa !62
  %64 = add nsw i32 %63, 1
  store i32 %64, ptr %8, align 8, !tbaa !62
  %65 = load i32, ptr %10, align 4, !tbaa !60
  %66 = icmp eq i32 %64, %65
  br i1 %66, label %67, label %._ZN8ImVectorI6ImVec2E7reserveEi.exit_crit_edge.i.i13

._ZN8ImVectorI6ImVec2E7reserveEi.exit_crit_edge.i.i13: ; preds = %_ZN10ImDrawList10PathLineToERK6ImVec2.exit12
  %.phi.trans.insert.i.i14 = getelementptr inbounds nuw i8, ptr %0, i64 88
  %.pre.i.i15 = load ptr, ptr %.phi.trans.insert.i.i14, align 8, !tbaa !61
  br label %_ZN10ImDrawList10PathLineToERK6ImVec2.exit20

67:                                               ; preds = %_ZN10ImDrawList10PathLineToERK6ImVec2.exit12
  %68 = add nsw i32 %63, 2
  %.not.i.i.i16 = icmp eq i32 %64, 0
  br i1 %.not.i.i.i16, label %_ZNK8ImVectorI6ImVec2E14_grow_capacityEi.exit.i.i17, label %69

69:                                               ; preds = %67
  %70 = sdiv i32 %64, 2
  %71 = add nsw i32 %70, %64
  br label %_ZNK8ImVectorI6ImVec2E14_grow_capacityEi.exit.i.i17

_ZNK8ImVectorI6ImVec2E14_grow_capacityEi.exit.i.i17: ; preds = %69, %67
  %72 = phi i32 [ %71, %69 ], [ 8, %67 ]
  %73 = tail call noundef i32 @llvm.smax.i32(i32 %72, i32 %68)
  %74 = sext i32 %73 to i64
  %75 = shl nsw i64 %74, 3
  %76 = tail call noundef ptr @_ZN5ImGui8MemAllocEm(i64 noundef %75)
  %77 = getelementptr inbounds nuw i8, ptr %0, i64 88
  %78 = load ptr, ptr %77, align 8, !tbaa !61
  %.not6.i.i.i18 = icmp eq ptr %78, null
  br i1 %.not6.i.i.i18, label %84, label %79

79:                                               ; preds = %_ZNK8ImVectorI6ImVec2E14_grow_capacityEi.exit.i.i17
  %80 = load i32, ptr %8, align 8, !tbaa !62
  %81 = sext i32 %80 to i64
  %82 = shl nsw i64 %81, 3
  tail call void @llvm.memcpy.p0.p0.i64(ptr align 4 %76, ptr nonnull align 4 %78, i64 %82, i1 false)
  %83 = load ptr, ptr %77, align 8, !tbaa !61
  tail call void @_ZN5ImGui7MemFreeEPv(ptr noundef %83)
  br label %84

84:                                               ; preds = %79, %_ZNK8ImVectorI6ImVec2E14_grow_capacityEi.exit.i.i17
  store ptr %76, ptr %77, align 8, !tbaa !61
  store i32 %73, ptr %10, align 4, !tbaa !60
  %.pre3.i.i19 = load i32, ptr %8, align 8, !tbaa !62
  br label %_ZN10ImDrawList10PathLineToERK6ImVec2.exit20

_ZN10ImDrawList10PathLineToERK6ImVec2.exit20:     ; preds = %._ZN8ImVectorI6ImVec2E7reserveEi.exit_crit_edge.i.i13, %84
  %85 = phi i32 [ %64, %._ZN8ImVectorI6ImVec2E7reserveEi.exit_crit_edge.i.i13 ], [ %.pre3.i.i19, %84 ]
  %86 = phi ptr [ %.pre.i.i15, %._ZN8ImVectorI6ImVec2E7reserveEi.exit_crit_edge.i.i13 ], [ %76, %84 ]
  %87 = sext i32 %85 to i64
  %88 = getelementptr inbounds %struct.ImVec2, ptr %86, i64 %87
  %89 = load i64, ptr %3, align 4
  store i64 %89, ptr %88, align 4
  %90 = load i32, ptr %8, align 8, !tbaa !62
  %91 = add nsw i32 %90, 1
  store i32 %91, ptr %8, align 8, !tbaa !62
  %92 = getelementptr inbounds nuw i8, ptr %0, i64 88
  %93 = load ptr, ptr %92, align 8, !tbaa !125
  tail call void @_ZN10ImDrawList19AddConvexPolyFilledEPK6ImVec2ij(ptr noundef nonnull align 8 dereferenceable(200) %0, ptr noundef %93, i32 noundef %91, i32 noundef %4)
  store i32 0, ptr %8, align 8, !tbaa !124
  br label %94

94:                                               ; preds = %5, %_ZN10ImDrawList10PathLineToERK6ImVec2.exit20
  ret void
}